#include <math.h>
#include <stdio.h>
#include <stdlib.h>
#include <string.h>


struct patient
{
       char name[20];
       int age;
} line[202], temp;

int main()
{
    int n, i, j;
    scanf("%d", &n);
    for(i=1;i<=n;i++)
    {
        scanf("%s", &line[i].name);
        scanf("%d", &line[i].age);
    }
    for(i=1;i<=n;i++)
    {
       for (j=n;j>i;j--)
       {
           if(line[j].age>=60){
       if(line[j].age>line[j-1].age)
       {
           temp=line[j];
           line[j]=line[j-1];
           line[j-1]=temp;
       }
       }
       }
    }
    for(i=1;i<=n;i++)
    {
        
            printf("%s\n", line[i].name);
        
    }
    return 0;
}